; Function Attrs: nounwind uwtable
define internal range(i32 0, 2) i32 @bitstr_cb(ptr noundef %0, i32 noundef %1, ptr noundef %2) #0 {
  %4 = alloca ptr, align 8
  call void @llvm.lifetime.start.p0(i64 8, ptr nonnull %4) #9
  %.not = icmp eq ptr %0, null
  br i1 %.not, label %19, label %5

5:                                                ; preds = %3
  %6 = call i64 @strtoul(ptr noundef nonnull %0, ptr noundef nonnull %4, i32 noundef 10) #9
  %7 = load ptr, ptr %4, align 8, !tbaa !6
  %.not10 = icmp eq ptr %7, null
  br i1 %.not10, label %12, label %8

8:                                                ; preds = %5
  %9 = load i8, ptr %7, align 1, !tbaa !25
  %.not11 = icmp eq i8 %9, 0
  %10 = sext i32 %1 to i64
  %11 = getelementptr inbounds i8, ptr %0, i64 %10
  %.not12 = icmp eq ptr %7, %11
  %or.cond = select i1 %.not11, i1 true, i1 %.not12
  br i1 %or.cond, label %12, label %19

12:                                               ; preds = %8, %5
  %13 = icmp slt i64 %6, 0
  br i1 %13, label %14, label %15

14:                                               ; preds = %12
  tail call void @ERR_put_error(i32 noundef 12, i32 noundef 0, i32 noundef 145, ptr noundef nonnull @.str, i32 noundef 810) #9
  br label %19

15:                                               ; preds = %12
  %16 = trunc i64 %6 to i32
  %17 = tail call i32 @ASN1_BIT_STRING_set_bit(ptr noundef %2, i32 noundef %16, i32 noundef 1) #9
  %.not13 = icmp eq i32 %17, 0
  br i1 %.not13, label %18, label %19

18:                                               ; preds = %15
  tail call void @ERR_put_error(i32 noundef 12, i32 noundef 0, i32 noundef 65, ptr noundef nonnull @.str, i32 noundef 814) #9
  br label %19

19:                                               ; preds = %15, %8, %3, %18, %14
  %.0 = phi i32 [ 0, %14 ], [ 0, %18 ], [ 0, %3 ], [ 0, %8 ], [ 1, %15 ]
  call void @llvm.lifetime.end.p0(i64 8, ptr nonnull %4) #9
  ret i32 %.0
}